; Function Attrs: mustprogress uwtable
define noundef zeroext i1 @_ZN3g2o32OptimizationAlgorithmWithHessian20buildLinearStructureEv(ptr noundef nonnull readonly align 8 captures(none) dereferenceable(80) %0) unnamed_addr #4 align 2 {
  %2 = getelementptr inbounds nuw i8, ptr %0, i64 64
  %3 = load ptr, ptr %2, align 8, !tbaa !47
  %4 = load ptr, ptr %3, align 8, !tbaa !3
  %5 = getelementptr inbounds nuw i8, ptr %4, i64 24
  %6 = load ptr, ptr %5, align 8
  %7 = tail call noundef zeroext i1 %6(ptr noundef nonnull align 8 dereferenceable(64) %3, i1 noundef zeroext false)
  ret i1 %7
}